; Function Attrs: nounwind uwtable
define internal noundef i64 @tcp_read(ptr noundef readonly captures(address_is_null) %0, ptr noundef captures(none) %1, i64 noundef %2) #0 {
  %.not = icmp eq ptr %0, null
  br i1 %.not, label %4, label %5

4:                                                ; preds = %3
  tail call void @__assert_fail(ptr noundef nonnull @.str.225, ptr noundef nonnull @.str.62, i32 noundef 57, ptr noundef nonnull @__PRETTY_FUNCTION__.tcp_read) #22
  unreachable

5:                                                ; preds = %3
  %6 = load i32, ptr %0, align 8, !tbaa !37
  %7 = tail call i64 @read(i32 noundef %6, ptr noundef %1, i64 noundef %2) #21
  ret i64 %7
}